; Function Attrs: nounwind uwtable
define dso_local void @packstr_array(ptr noundef readonly captures(none) %0, i32 noundef %1, ptr noundef %2) #0 {
  %4 = tail call noundef i32 @llvm.bswap.i32(i32 %1)
  %5 = getelementptr inbounds nuw i8, ptr %2, i64 16
  %6 = load i32, ptr %5, align 8
  %7 = getelementptr inbounds nuw i8, ptr %2, i64 20
  %8 = load i32, ptr %7, align 4
  %9 = sub i32 %6, %8
  %10 = icmp ult i32 %9, 4
  br i1 %10, label %11, label %try_grow_buf_remaining.exit

11:                                               ; preds = %3
  %12 = add i32 %6, 16384
  %13 = zext i32 %12 to i64
  %14 = getelementptr inbounds nuw i8, ptr %2, i64 24
  %15 = load i8, ptr %14, align 8, !range !8, !noundef !9
  %16 = trunc nuw i8 %15 to i1
  br i1 %16, label %try_grow_buf_remaining.exit.thread, label %17

17:                                               ; preds = %11
  %18 = getelementptr inbounds nuw i8, ptr %2, i64 25
  %19 = load i8, ptr %18, align 1, !range !8, !noundef !9
  %20 = trunc nuw i8 %19 to i1
  br i1 %20, label %try_grow_buf_remaining.exit.thread, label %21

21:                                               ; preds = %17
  %22 = icmp ugt i32 %12, -65536
  br i1 %22, label %23, label %25

23:                                               ; preds = %21
  %24 = tail call i32 (ptr, ...) @error(ptr noundef nonnull @.str.8, ptr noundef nonnull @__func__.try_grow_buf, i64 noundef %13, i32 noundef -65536) #14
  br label %try_grow_buf_remaining.exit.thread

25:                                               ; preds = %21
  %26 = getelementptr inbounds nuw i8, ptr %2, i64 8
  %27 = tail call ptr @slurm_xrecalloc(ptr noundef nonnull %26, i64 noundef 1, i64 noundef %13, i1 noundef zeroext true, i1 noundef zeroext true, ptr noundef nonnull @.str.1, i32 noundef 238, ptr noundef nonnull @__func__.try_grow_buf) #14
  %.not.i.i = icmp eq ptr %27, null
  br i1 %.not.i.i, label %try_grow_buf_remaining.exit.thread, label %28

28:                                               ; preds = %25
  store i32 %12, ptr %5, align 8
  %.pre = load i32, ptr %7, align 4
  br label %try_grow_buf_remaining.exit

try_grow_buf_remaining.exit:                      ; preds = %28, %3
  %29 = phi i32 [ %.pre, %28 ], [ %8, %3 ]
  %30 = getelementptr inbounds nuw i8, ptr %2, i64 8
  %31 = load ptr, ptr %30, align 8
  %32 = zext i32 %29 to i64
  %33 = getelementptr inbounds nuw i8, ptr %31, i64 %32
  store i32 %4, ptr %33, align 1
  %34 = load i32, ptr %7, align 4
  %35 = add i32 %34, 4
  store i32 %35, ptr %7, align 4
  %.not = icmp eq i32 %1, 0
  br i1 %.not, label %try_grow_buf_remaining.exit.thread, label %.lr.ph.preheader

.lr.ph.preheader:                                 ; preds = %try_grow_buf_remaining.exit
  %wide.trip.count = zext i32 %1 to i64
  br label %.lr.ph

.lr.ph:                                           ; preds = %.lr.ph.preheader, %42
  %indvars.iv = phi i64 [ 0, %.lr.ph.preheader ], [ %indvars.iv.next, %42 ]
  %36 = getelementptr inbounds nuw ptr, ptr %0, i64 %indvars.iv
  %37 = load ptr, ptr %36, align 8
  %.not17 = icmp eq ptr %37, null
  br i1 %.not17, label %42, label %38

38:                                               ; preds = %.lr.ph
  %39 = tail call i64 @strlen(ptr noundef nonnull dereferenceable(1) %37) #16
  %40 = trunc i64 %39 to i32
  %41 = add i32 %40, 1
  br label %42

42:                                               ; preds = %38, %.lr.ph
  %.0 = phi i32 [ %41, %38 ], [ 0, %.lr.ph ]
  tail call void @packmem(ptr noundef %37, i32 noundef %.0, ptr noundef %2)
  %indvars.iv.next = add nuw nsw i64 %indvars.iv, 1
  %exitcond.not = icmp eq i64 %indvars.iv.next, %wide.trip.count
  br i1 %exitcond.not, label %try_grow_buf_remaining.exit.thread, label %.lr.ph, !llvm.loop !17

try_grow_buf_remaining.exit.thread:               ; preds = %42, %try_grow_buf_remaining.exit, %25, %11, %17, %23
  ret void
}